target datalayout = "e-m:e-p270:32:32-p271:32:32-p272:64:64-i64:64-i128:128-f80:128-n8:16:32:64-S128"
target triple = "x86_64-pc-linux-gnu"

%struct.except_id_t = type { i64, i64 }
%struct._packet_info = type { ptr, ptr, i32, i32, %struct.nstime_t, %struct.nstime_t, %struct.nstime_t, i8, ptr, ptr, ptr, ptr, %struct._address, %struct._address, %struct._address, %struct._address, %struct._address, %struct._address, i32, ptr, i8, [3 x i8], %struct.anon, i32, i32, i32, i32, ptr, i8, ptr, ptr, i16, i16, i32, i32, i16, i32, i32, ptr, ptr, ptr, i8, i8, i16, i16, i16, i32, i16, i16, ptr, ptr, ptr, ptr, ptr, i32, i32 }
%struct.nstime_t = type { i64, i32 }
%struct._address = type { i32, i32, ptr, ptr }
%struct.anon = type { i8, [3 x i8] }
%struct._diam_ctx_t = type { ptr, ptr, ptr }
%struct._diam_avp_t = type { i32, ptr, ptr, i32, i32, ptr }
%struct.except_stacknode = type { ptr, i32, %union.anon }
%union.anon = type { ptr }
%struct.except_catch = type { ptr, i64, %struct.except_t, [1 x %struct.__jmp_buf_tag] }
%struct.except_t = type { %struct.except_id_t, ptr, ptr }
%struct.__jmp_buf_tag = type { [8 x i64], i32, %struct.__sigset_t }
%struct.__sigset_t = type { [16 x i64] }
%struct._proto_avp_t = type { ptr, ptr, i32 }

@data_handle = internal global ptr null, align 8
@.str.33 = private unnamed_addr constant [1 x i8] zeroinitializer, align 1
@proto_avp.catch_spec = internal constant [1 x %struct.except_id_t] [%struct.except_id_t { i64 1, i64 0 }], align 16

; Function Attrs: null_pointer_is_valid sspstrong uwtable
define internal ptr @proto_avp(ptr noundef %0, ptr noundef %1, ptr noundef %2, ptr noundef %3) #0 {
  %5 = alloca ptr, align 8
  %6 = alloca ptr, align 8
  %7 = alloca ptr, align 8
  %8 = alloca ptr, align 8
  %9 = alloca ptr, align 8
  %10 = alloca ptr, align 8
  %11 = alloca i32, align 4
  %12 = alloca %struct.except_stacknode, align 8
  %13 = alloca %struct.except_catch, align 8
  store ptr %0, ptr %5, align 8
  store ptr %1, ptr %6, align 8
  store ptr %2, ptr %7, align 8
  store ptr %3, ptr %8, align 8
  call void @llvm.lifetime.start.p0(i64 8, ptr %9) #14
  %14 = load ptr, ptr %6, align 8
  %15 = getelementptr inbounds nuw %struct._diam_avp_t, ptr %14, i32 0, i32 5
  %16 = load ptr, ptr %15, align 8
  store ptr %16, ptr %9, align 8
  %17 = load ptr, ptr %5, align 8
  %18 = getelementptr inbounds nuw %struct._diam_ctx_t, ptr %17, i32 0, i32 1
  %19 = load ptr, ptr %18, align 8
  %20 = getelementptr inbounds nuw %struct._packet_info, ptr %19, i32 0, i32 1
  %21 = load ptr, ptr %20, align 8
  call void @col_set_writable(ptr noundef %21, i32 noundef 35, i1 noundef zeroext false)
  %22 = load ptr, ptr %5, align 8
  %23 = getelementptr inbounds nuw %struct._diam_ctx_t, ptr %22, i32 0, i32 1
  %24 = load ptr, ptr %23, align 8
  %25 = getelementptr inbounds nuw %struct._packet_info, ptr %24, i32 0, i32 1
  %26 = load ptr, ptr %25, align 8
  call void @col_set_writable(ptr noundef %26, i32 noundef 25, i1 noundef zeroext false)
  %27 = load ptr, ptr %9, align 8
  %28 = getelementptr inbounds nuw %struct._proto_avp_t, ptr %27, i32 0, i32 1
  %29 = load ptr, ptr %28, align 8
  %30 = icmp ne ptr %29, null
  br i1 %30, label %47, label %31

31:                                               ; preds = %4
  %32 = load ptr, ptr %9, align 8
  %33 = getelementptr inbounds nuw %struct._proto_avp_t, ptr %32, i32 0, i32 0
  %34 = load ptr, ptr %33, align 8
  %35 = call ptr @find_dissector(ptr noundef %34)
  %36 = load ptr, ptr %9, align 8
  %37 = getelementptr inbounds nuw %struct._proto_avp_t, ptr %36, i32 0, i32 1
  store ptr %35, ptr %37, align 8
  %38 = load ptr, ptr %9, align 8
  %39 = getelementptr inbounds nuw %struct._proto_avp_t, ptr %38, i32 0, i32 1
  %40 = load ptr, ptr %39, align 8
  %41 = icmp ne ptr %40, null
  br i1 %41, label %46, label %42

42:                                               ; preds = %31
  %43 = load ptr, ptr @data_handle, align 8
  %44 = load ptr, ptr %9, align 8
  %45 = getelementptr inbounds nuw %struct._proto_avp_t, ptr %44, i32 0, i32 1
  store ptr %43, ptr %45, align 8
  br label %46

46:                                               ; preds = %42, %31
  br label %47

47:                                               ; preds = %46, %4
  call void @llvm.lifetime.start.p0(i64 8, ptr %10) #14
  call void @llvm.lifetime.start.p0(i64 4, ptr %11) #14
  store volatile i32 0, ptr %11, align 4
  call void @llvm.lifetime.start.p0(i64 24, ptr %12) #14
  call void @llvm.lifetime.start.p0(i64 248, ptr %13) #14
  call void @except_setup_try(ptr noundef %12, ptr noundef %13, ptr noundef @proto_avp.catch_spec, i64 noundef 1)
  %48 = getelementptr inbounds nuw %struct.except_catch, ptr %13, i32 0, i32 3
  %49 = getelementptr inbounds [1 x %struct.__jmp_buf_tag], ptr %48, i64 0, i64 0
  %50 = call i32 @_setjmp(ptr noundef %49) #18
  %51 = icmp ne i32 %50, 0
  br i1 %51, label %52, label %54

52:                                               ; preds = %47
  %53 = getelementptr inbounds nuw %struct.except_catch, ptr %13, i32 0, i32 2
  store volatile ptr %53, ptr %10, align 8
  br label %55

54:                                               ; preds = %47
  store volatile ptr null, ptr %10, align 8
  br label %55

55:                                               ; preds = %54, %52
  %56 = load volatile i32, ptr %11, align 4
  %57 = and i32 %56, 1
  %58 = icmp ne i32 %57, 0
  br i1 %58, label %59, label %62

59:                                               ; preds = %55
  %60 = load volatile i32, ptr %11, align 4
  %61 = or i32 %60, 2
  store volatile i32 %61, ptr %11, align 4
  br label %62

62:                                               ; preds = %59, %55
  %63 = load volatile i32, ptr %11, align 4
  %64 = and i32 %63, -2
  store volatile i32 %64, ptr %11, align 4
  %65 = load volatile i32, ptr %11, align 4
  %66 = icmp eq i32 %65, 0
  br i1 %66, label %67, label %83

67:                                               ; preds = %62
  %68 = load volatile ptr, ptr %10, align 8
  %69 = icmp eq ptr %68, null
  br i1 %69, label %70, label %83

70:                                               ; preds = %67
  %71 = load ptr, ptr %9, align 8
  %72 = getelementptr inbounds nuw %struct._proto_avp_t, ptr %71, i32 0, i32 1
  %73 = load ptr, ptr %72, align 8
  %74 = load ptr, ptr %7, align 8
  %75 = load ptr, ptr %5, align 8
  %76 = getelementptr inbounds nuw %struct._diam_ctx_t, ptr %75, i32 0, i32 1
  %77 = load ptr, ptr %76, align 8
  %78 = load ptr, ptr %5, align 8
  %79 = getelementptr inbounds nuw %struct._diam_ctx_t, ptr %78, i32 0, i32 0
  %80 = load ptr, ptr %79, align 8
  %81 = load ptr, ptr %8, align 8
  %82 = call i32 @call_dissector_with_data(ptr noundef %73, ptr noundef %74, ptr noundef %77, ptr noundef %80, ptr noundef %81)
  br label %83

83:                                               ; preds = %70, %67, %62
  %84 = load volatile i32, ptr %11, align 4
  %85 = icmp eq i32 %84, 0
  br i1 %85, label %86, label %132

86:                                               ; preds = %83
  %87 = load volatile ptr, ptr %10, align 8
  %88 = icmp ne ptr %87, null
  br i1 %88, label %89, label %132

89:                                               ; preds = %86
  %90 = load volatile ptr, ptr %10, align 8
  %91 = getelementptr inbounds nuw %struct.except_t, ptr %90, i32 0, i32 0
  %92 = getelementptr inbounds nuw %struct.except_id_t, ptr %91, i32 0, i32 1
  %93 = load volatile i64, ptr %92, align 8
  %94 = icmp eq i64 %93, 3
  br i1 %94, label %113, label %95

95:                                               ; preds = %89
  %96 = load volatile ptr, ptr %10, align 8
  %97 = getelementptr inbounds nuw %struct.except_t, ptr %96, i32 0, i32 0
  %98 = getelementptr inbounds nuw %struct.except_id_t, ptr %97, i32 0, i32 1
  %99 = load volatile i64, ptr %98, align 8
  %100 = icmp eq i64 %99, 2
  br i1 %100, label %113, label %101

101:                                              ; preds = %95
  %102 = load volatile ptr, ptr %10, align 8
  %103 = getelementptr inbounds nuw %struct.except_t, ptr %102, i32 0, i32 0
  %104 = getelementptr inbounds nuw %struct.except_id_t, ptr %103, i32 0, i32 1
  %105 = load volatile i64, ptr %104, align 8
  %106 = icmp eq i64 %105, 7
  br i1 %106, label %113, label %107

107:                                              ; preds = %101
  %108 = load volatile ptr, ptr %10, align 8
  %109 = getelementptr inbounds nuw %struct.except_t, ptr %108, i32 0, i32 0
  %110 = getelementptr inbounds nuw %struct.except_id_t, ptr %109, i32 0, i32 1
  %111 = load volatile i64, ptr %110, align 8
  %112 = icmp eq i64 %111, 9
  br i1 %112, label %113, label %132

113:                                              ; preds = %107, %101, %95, %89
  %114 = load volatile i32, ptr %11, align 4
  %115 = or i32 %114, 1
  store volatile i32 %115, ptr %11, align 4
  %116 = icmp ne i32 %115, 0
  br i1 %116, label %117, label %132

117:                                              ; preds = %113
  %118 = load ptr, ptr %7, align 8
  %119 = load ptr, ptr %5, align 8
  %120 = getelementptr inbounds nuw %struct._diam_ctx_t, ptr %119, i32 0, i32 1
  %121 = load ptr, ptr %120, align 8
  %122 = load ptr, ptr %5, align 8
  %123 = getelementptr inbounds nuw %struct._diam_ctx_t, ptr %122, i32 0, i32 0
  %124 = load ptr, ptr %123, align 8
  %125 = load volatile ptr, ptr %10, align 8
  %126 = getelementptr inbounds nuw %struct.except_t, ptr %125, i32 0, i32 0
  %127 = getelementptr inbounds nuw %struct.except_id_t, ptr %126, i32 0, i32 1
  %128 = load volatile i64, ptr %127, align 8
  %129 = load volatile ptr, ptr %10, align 8
  %130 = getelementptr inbounds nuw %struct.except_t, ptr %129, i32 0, i32 1
  %131 = load volatile ptr, ptr %130, align 8
  call void @show_exception(ptr noundef %118, ptr noundef %121, ptr noundef %124, i64 noundef %128, ptr noundef %131)
  br label %132

132:                                              ; preds = %117, %113, %107, %86, %83
  %133 = load volatile i32, ptr %11, align 4
  %134 = and i32 %133, 1
  %135 = icmp ne i32 %134, 0
  br i1 %135, label %141, label %136

136:                                              ; preds = %132
  %137 = load volatile ptr, ptr %10, align 8
  %138 = icmp ne ptr %137, null
  br i1 %138, label %139, label %141

139:                                              ; preds = %136
  %140 = load volatile ptr, ptr %10, align 8
  call void @except_rethrow(ptr noundef %140) #16
  unreachable

141:                                              ; preds = %136, %132
  %142 = getelementptr inbounds nuw %struct.except_catch, ptr %13, i32 0, i32 2
  %143 = getelementptr inbounds nuw %struct.except_t, ptr %142, i32 0, i32 2
  %144 = load volatile ptr, ptr %143, align 8
  call void @except_free(ptr noundef %144)
  %145 = call ptr @except_pop()
  call void @llvm.lifetime.end.p0(i64 248, ptr %13) #14
  call void @llvm.lifetime.end.p0(i64 24, ptr %12) #14
  call void @llvm.lifetime.end.p0(i64 4, ptr %11) #14
  call void @llvm.lifetime.end.p0(i64 8, ptr %10) #14
  call void @llvm.lifetime.end.p0(i64 8, ptr %9) #14
  ret ptr @.str.33
}