; Function Attrs: null_pointer_is_valid sspstrong uwtable
define internal noundef nonnull ptr @proto_avp(ptr noundef readonly captures(none) %0, ptr noundef readonly captures(none) %1, ptr noundef %2, ptr noundef %3) #0 {
  %5 = alloca ptr, align 8
  %6 = alloca i32, align 4
  %7 = alloca %struct.except_stacknode, align 8
  %8 = alloca %struct.except_catch, align 8
  %9 = getelementptr inbounds nuw i8, ptr %1, i64 32
  %10 = load ptr, ptr %9, align 8
  %11 = getelementptr inbounds nuw i8, ptr %0, i64 8
  %12 = load ptr, ptr %11, align 8
  %13 = getelementptr inbounds nuw i8, ptr %12, i64 8
  %14 = load ptr, ptr %13, align 8
  call void @col_set_writable(ptr noundef %14, i32 noundef 35, i1 noundef zeroext false)
  %15 = load ptr, ptr %11, align 8
  %16 = getelementptr inbounds nuw i8, ptr %15, i64 8
  %17 = load ptr, ptr %16, align 8
  call void @col_set_writable(ptr noundef %17, i32 noundef 25, i1 noundef zeroext false)
  %18 = getelementptr inbounds nuw i8, ptr %10, i64 8
  %19 = load ptr, ptr %18, align 8
  %.not = icmp eq ptr %19, null
  br i1 %.not, label %20, label %25

20:                                               ; preds = %4
  %21 = load ptr, ptr %10, align 8
  %22 = call ptr @find_dissector(ptr noundef %21)
  store ptr %22, ptr %18, align 8
  %.not33 = icmp eq ptr %22, null
  br i1 %.not33, label %23, label %25

23:                                               ; preds = %20
  %24 = load ptr, ptr @data_handle, align 8
  store ptr %24, ptr %18, align 8
  br label %25

25:                                               ; preds = %20, %23, %4
  call void @llvm.lifetime.start.p0(i64 8, ptr nonnull %5)
  call void @llvm.lifetime.start.p0(i64 4, ptr nonnull %6)
  store volatile i32 0, ptr %6, align 4
  call void @llvm.lifetime.start.p0(i64 24, ptr nonnull %7) #16
  call void @llvm.lifetime.start.p0(i64 248, ptr nonnull %8) #16
  call void @except_setup_try(ptr noundef nonnull %7, ptr noundef nonnull %8, ptr noundef nonnull @proto_avp.catch_spec, i64 noundef 1)
  %26 = getelementptr inbounds nuw i8, ptr %8, i64 48
  %27 = call i32 @_setjmp(ptr noundef nonnull %26) #19
  %.not34 = icmp eq i32 %27, 0
  %28 = getelementptr inbounds nuw i8, ptr %8, i64 16
  %.sink = select i1 %.not34, ptr null, ptr %28
  store volatile ptr %.sink, ptr %5, align 8
  %.0..0..0..0. = load volatile i32, ptr %6, align 4
  %29 = and i32 %.0..0..0..0., 1
  %.not35 = icmp eq i32 %29, 0
  br i1 %.not35, label %32, label %30

30:                                               ; preds = %25
  %.0..0..0..0.1 = load volatile i32, ptr %6, align 4
  %31 = or i32 %.0..0..0..0.1, 2
  store volatile i32 %31, ptr %6, align 4
  br label %32

32:                                               ; preds = %30, %25
  %.0..0..0..0.2 = load volatile i32, ptr %6, align 4
  %33 = and i32 %.0..0..0..0.2, -2
  store volatile i32 %33, ptr %6, align 4
  %.0..0..0..0.3 = load volatile i32, ptr %6, align 4
  %34 = icmp eq i32 %.0..0..0..0.3, 0
  br i1 %34, label %35, label %42

35:                                               ; preds = %32
  %.0..0..0..0.7 = load volatile ptr, ptr %5, align 8
  %36 = icmp eq ptr %.0..0..0..0.7, null
  br i1 %36, label %37, label %42

37:                                               ; preds = %35
  %38 = load ptr, ptr %18, align 8
  %39 = load ptr, ptr %11, align 8
  %40 = load ptr, ptr %0, align 8
  %41 = call i32 @call_dissector_with_data(ptr noundef %38, ptr noundef %2, ptr noundef %39, ptr noundef %40, ptr noundef %3)
  br label %42

42:                                               ; preds = %37, %35, %32
  %.0..0..0..0.4 = load volatile i32, ptr %6, align 4
  %43 = icmp eq i32 %.0..0..0..0.4, 0
  br i1 %43, label %44, label %69

44:                                               ; preds = %42
  %.0..0..0..0.8 = load volatile ptr, ptr %5, align 8
  %.not36 = icmp eq ptr %.0..0..0..0.8, null
  br i1 %.not36, label %69, label %45

45:                                               ; preds = %44
  %.0..0..0..0.9 = load volatile ptr, ptr %5, align 8
  %46 = getelementptr inbounds nuw i8, ptr %.0..0..0..0.9, i64 8
  %47 = load volatile i64, ptr %46, align 8
  %48 = icmp eq i64 %47, 3
  br i1 %48, label %61, label %49

49:                                               ; preds = %45
  %.0..0..0..0.10 = load volatile ptr, ptr %5, align 8
  %50 = getelementptr inbounds nuw i8, ptr %.0..0..0..0.10, i64 8
  %51 = load volatile i64, ptr %50, align 8
  %52 = icmp eq i64 %51, 2
  br i1 %52, label %61, label %53

53:                                               ; preds = %49
  %.0..0..0..0.11 = load volatile ptr, ptr %5, align 8
  %54 = getelementptr inbounds nuw i8, ptr %.0..0..0..0.11, i64 8
  %55 = load volatile i64, ptr %54, align 8
  %56 = icmp eq i64 %55, 7
  br i1 %56, label %61, label %57

57:                                               ; preds = %53
  %.0..0..0..0.12 = load volatile ptr, ptr %5, align 8
  %58 = getelementptr inbounds nuw i8, ptr %.0..0..0..0.12, i64 8
  %59 = load volatile i64, ptr %58, align 8
  %60 = icmp eq i64 %59, 9
  br i1 %60, label %61, label %69

61:                                               ; preds = %57, %53, %49, %45
  %.0..0..0..0.5 = load volatile i32, ptr %6, align 4
  %62 = or i32 %.0..0..0..0.5, 1
  store volatile i32 %62, ptr %6, align 4
  %63 = load ptr, ptr %11, align 8
  %64 = load ptr, ptr %0, align 8
  %.0..0..0..0.13 = load volatile ptr, ptr %5, align 8
  %65 = getelementptr inbounds nuw i8, ptr %.0..0..0..0.13, i64 8
  %66 = load volatile i64, ptr %65, align 8
  %.0..0..0..0.14 = load volatile ptr, ptr %5, align 8
  %67 = getelementptr inbounds nuw i8, ptr %.0..0..0..0.14, i64 16
  %68 = load volatile ptr, ptr %67, align 8
  call void @show_exception(ptr noundef %2, ptr noundef %63, ptr noundef %64, i64 noundef %66, ptr noundef %68)
  br label %69

69:                                               ; preds = %61, %57, %44, %42
  %.0..0..0..0.6 = load volatile i32, ptr %6, align 4
  %70 = and i32 %.0..0..0..0.6, 1
  %.not37 = icmp eq i32 %70, 0
  br i1 %.not37, label %71, label %73

71:                                               ; preds = %69
  %.0..0..0..0.15 = load volatile ptr, ptr %5, align 8
  %.not38 = icmp eq ptr %.0..0..0..0.15, null
  br i1 %.not38, label %73, label %72

72:                                               ; preds = %71
  %.0..0..0..0.16 = load volatile ptr, ptr %5, align 8
  call void @except_rethrow(ptr noundef %.0..0..0..0.16) #17
  unreachable

73:                                               ; preds = %71, %69
  %74 = getelementptr inbounds nuw i8, ptr %8, i64 40
  %75 = load volatile ptr, ptr %74, align 8
  call void @except_free(ptr noundef %75)
  %76 = call ptr @except_pop()
  call void @llvm.lifetime.end.p0(i64 248, ptr nonnull %8) #16
  call void @llvm.lifetime.end.p0(i64 24, ptr nonnull %7) #16
  call void @llvm.lifetime.end.p0(i64 4, ptr nonnull %6)
  call void @llvm.lifetime.end.p0(i64 8, ptr nonnull %5)
  ret ptr @.str.33
}